target datalayout = "e-m:e-p270:32:32-p271:32:32-p272:64:64-i64:64-i128:128-f80:128-n8:16:32:64-S128"
target triple = "x86_64-unknown-linux-gnu"

%struct.sdshdr8 = type { i8, i8, i8, [0 x i8] }
%struct.sdshdr16 = type <{ i16, i16, i8, [0 x i8] }>
%struct.sdshdr32 = type <{ i32, i32, i8, [0 x i8] }>
%struct.sdshdr64 = type <{ i64, i64, i8, [0 x i8] }>

; Function Attrs: nounwind uwtable
define internal i64 @sdslen(ptr noundef %s) #0 {
entry:
  %retval = alloca i64, align 8
  %s.addr = alloca ptr, align 8
  %flags = alloca i8, align 1
  store ptr %s, ptr %s.addr, align 8
  %0 = load ptr, ptr %s.addr, align 8
  %arrayidx = getelementptr inbounds i8, ptr %0, i64 -1
  %1 = load i8, ptr %arrayidx, align 1
  store i8 %1, ptr %flags, align 1
  %2 = load i8, ptr %flags, align 1
  %conv = zext i8 %2 to i32
  %and = and i32 %conv, 7
  switch i32 %and, label %sw.epilog [
    i32 0, label %sw.bb
    i32 1, label %sw.bb3
    i32 2, label %sw.bb5
    i32 3, label %sw.bb9
    i32 4, label %sw.bb13
  ]

sw.bb:                                            ; preds = %entry
  %3 = load i8, ptr %flags, align 1
  %conv1 = zext i8 %3 to i32
  %shr = ashr i32 %conv1, 3
  %conv2 = sext i32 %shr to i64
  store i64 %conv2, ptr %retval, align 8
  br label %return

sw.bb3:                                           ; preds = %entry
  %4 = load ptr, ptr %s.addr, align 8
  %add.ptr = getelementptr inbounds i8, ptr %4, i64 -3
  %len = getelementptr inbounds %struct.sdshdr8, ptr %add.ptr, i32 0, i32 0
  %5 = load i8, ptr %len, align 1
  %conv4 = zext i8 %5 to i64
  store i64 %conv4, ptr %retval, align 8
  br label %return

sw.bb5:                                           ; preds = %entry
  %6 = load ptr, ptr %s.addr, align 8
  %add.ptr6 = getelementptr inbounds i8, ptr %6, i64 -5
  %len7 = getelementptr inbounds %struct.sdshdr16, ptr %add.ptr6, i32 0, i32 0
  %7 = load i16, ptr %len7, align 1
  %conv8 = zext i16 %7 to i64
  store i64 %conv8, ptr %retval, align 8
  br label %return

sw.bb9:                                           ; preds = %entry
  %8 = load ptr, ptr %s.addr, align 8
  %add.ptr10 = getelementptr inbounds i8, ptr %8, i64 -9
  %len11 = getelementptr inbounds %struct.sdshdr32, ptr %add.ptr10, i32 0, i32 0
  %9 = load i32, ptr %len11, align 1
  %conv12 = zext i32 %9 to i64
  store i64 %conv12, ptr %retval, align 8
  br label %return

sw.bb13:                                          ; preds = %entry
  %10 = load ptr, ptr %s.addr, align 8
  %add.ptr14 = getelementptr inbounds i8, ptr %10, i64 -17
  %len15 = getelementptr inbounds %struct.sdshdr64, ptr %add.ptr14, i32 0, i32 0
  %11 = load i64, ptr %len15, align 1
  store i64 %11, ptr %retval, align 8
  br label %return

sw.epilog:                                        ; preds = %entry
  store i64 0, ptr %retval, align 8
  br label %return

return:                                           ; preds = %sw.epilog, %sw.bb13, %sw.bb9, %sw.bb5, %sw.bb3, %sw.bb
  %12 = load i64, ptr %retval, align 8
  ret i64 %12
}

; Function Attrs: nounwind uwtable
define dso_local i32 @sdsneedsrepr(ptr noundef %s) #0 {
entry:
  %retval = alloca i32, align 4
  %s.addr = alloca ptr, align 8
  %len = alloca i64, align 8
  %p = alloca ptr, align 8
  store ptr %s, ptr %s.addr, align 8
  %0 = load ptr, ptr %s.addr, align 8
  %call = call i64 @sdslen(ptr noundef %0)
  store i64 %call, ptr %len, align 8
  %1 = load ptr, ptr %s.addr, align 8
  store ptr %1, ptr %p, align 8
  br label %while.cond

while.cond:                                       ; preds = %if.end, %entry
  %2 = load i64, ptr %len, align 8
  %dec = add i64 %2, -1
  store i64 %dec, ptr %len, align 8
  %tobool = icmp ne i64 %2, 0
  br i1 %tobool, label %while.body, label %while.end

while.body:                                       ; preds = %while.cond
  %3 = load ptr, ptr %p, align 8
  %4 = load i8, ptr %3, align 1
  %conv = sext i8 %4 to i32
  %cmp = icmp eq i32 %conv, 92
  br i1 %cmp, label %if.then, label %lor.lhs.false

lor.lhs.false:                                    ; preds = %while.body
  %5 = load ptr, ptr %p, align 8
  %6 = load i8, ptr %5, align 1
  %conv2 = sext i8 %6 to i32
  %cmp3 = icmp eq i32 %conv2, 34
  br i1 %cmp3, label %if.then, label %lor.lhs.false5

lor.lhs.false5:                                   ; preds = %lor.lhs.false
  %7 = load ptr, ptr %p, align 8
  %8 = load i8, ptr %7, align 1
  %conv6 = sext i8 %8 to i32
  %cmp7 = icmp eq i32 %conv6, 10
  br i1 %cmp7, label %if.then, label %lor.lhs.false9

lor.lhs.false9:                                   ; preds = %lor.lhs.false5
  %9 = load ptr, ptr %p, align 8
  %10 = load i8, ptr %9, align 1
  %conv10 = sext i8 %10 to i32
  %cmp11 = icmp eq i32 %conv10, 13
  br i1 %cmp11, label %if.then, label %lor.lhs.false13

lor.lhs.false13:                                  ; preds = %lor.lhs.false9
  %11 = load ptr, ptr %p, align 8
  %12 = load i8, ptr %11, align 1
  %conv14 = sext i8 %12 to i32
  %cmp15 = icmp eq i32 %conv14, 9
  br i1 %cmp15, label %if.then, label %lor.lhs.false17

lor.lhs.false17:                                  ; preds = %lor.lhs.false13
  %13 = load ptr, ptr %p, align 8
  %14 = load i8, ptr %13, align 1
  %conv18 = sext i8 %14 to i32
  %cmp19 = icmp eq i32 %conv18, 7
  br i1 %cmp19, label %if.then, label %lor.lhs.false21

lor.lhs.false21:                                  ; preds = %lor.lhs.false17
  %15 = load ptr, ptr %p, align 8
  %16 = load i8, ptr %15, align 1
  %conv22 = sext i8 %16 to i32
  %cmp23 = icmp eq i32 %conv22, 8
  br i1 %cmp23, label %if.then, label %lor.lhs.false25

lor.lhs.false25:                                  ; preds = %lor.lhs.false21
  %call26 = call ptr @__ctype_b_loc() #16
  %17 = load ptr, ptr %call26, align 8
  %18 = load ptr, ptr %p, align 8
  %19 = load i8, ptr %18, align 1
  %conv27 = sext i8 %19 to i32
  %idxprom = sext i32 %conv27 to i64
  %arrayidx = getelementptr inbounds i16, ptr %17, i64 %idxprom
  %20 = load i16, ptr %arrayidx, align 2
  %conv28 = zext i16 %20 to i32
  %and = and i32 %conv28, 16384
  %tobool29 = icmp ne i32 %and, 0
  br i1 %tobool29, label %lor.lhs.false30, label %if.then

lor.lhs.false30:                                  ; preds = %lor.lhs.false25
  %call31 = call ptr @__ctype_b_loc() #16
  %21 = load ptr, ptr %call31, align 8
  %22 = load ptr, ptr %p, align 8
  %23 = load i8, ptr %22, align 1
  %conv32 = sext i8 %23 to i32
  %idxprom33 = sext i32 %conv32 to i64
  %arrayidx34 = getelementptr inbounds i16, ptr %21, i64 %idxprom33
  %24 = load i16, ptr %arrayidx34, align 2
  %conv35 = zext i16 %24 to i32
  %and36 = and i32 %conv35, 8192
  %tobool37 = icmp ne i32 %and36, 0
  br i1 %tobool37, label %if.then, label %if.end

if.then:                                          ; preds = %lor.lhs.false30, %lor.lhs.false25, %lor.lhs.false21, %lor.lhs.false17, %lor.lhs.false13, %lor.lhs.false9, %lor.lhs.false5, %lor.lhs.false, %while.body
  store i32 1, ptr %retval, align 4
  br label %return

if.end:                                           ; preds = %lor.lhs.false30
  %25 = load ptr, ptr %p, align 8
  %incdec.ptr = getelementptr inbounds i8, ptr %25, i32 1
  store ptr %incdec.ptr, ptr %p, align 8
  br label %while.cond, !llvm.loop !15

while.end:                                        ; preds = %while.cond
  store i32 0, ptr %retval, align 4
  br label %return

return:                                           ; preds = %while.end, %if.then
  %26 = load i32, ptr %retval, align 4
  ret i32 %26
}