; Function Attrs: nofree nosync nounwind memory(read, inaccessiblemem: none) uwtable
define dso_local noundef i32 @sdsneedsrepr(ptr nocapture noundef readonly %s) local_unnamed_addr #19 {
entry:
  %arrayidx.i = getelementptr inbounds i8, ptr %s, i64 -1
  %0 = load i8, ptr %arrayidx.i, align 1
  %conv.i = zext i8 %0 to i32
  %and.i = and i32 %conv.i, 7
  switch i32 %and.i, label %return [
    i32 0, label %sw.bb.i
    i32 1, label %sw.bb3.i
    i32 2, label %sw.bb5.i
    i32 3, label %sw.bb9.i
    i32 4, label %sw.bb13.i
  ]

sw.bb.i:                                          ; preds = %entry
  %shr.i = lshr i32 %conv.i, 3
  %conv2.i = zext nneg i32 %shr.i to i64
  br label %sdslen.exit

sw.bb3.i:                                         ; preds = %entry
  %add.ptr.i = getelementptr inbounds i8, ptr %s, i64 -3
  %1 = load i8, ptr %add.ptr.i, align 1
  %conv4.i = zext i8 %1 to i64
  br label %sdslen.exit

sw.bb5.i:                                         ; preds = %entry
  %add.ptr6.i = getelementptr inbounds i8, ptr %s, i64 -5
  %2 = load i16, ptr %add.ptr6.i, align 1
  %conv8.i = zext i16 %2 to i64
  br label %sdslen.exit

sw.bb9.i:                                         ; preds = %entry
  %add.ptr10.i = getelementptr inbounds i8, ptr %s, i64 -9
  %3 = load i32, ptr %add.ptr10.i, align 1
  %conv12.i = zext i32 %3 to i64
  br label %sdslen.exit

sw.bb13.i:                                        ; preds = %entry
  %add.ptr14.i = getelementptr inbounds i8, ptr %s, i64 -17
  %4 = load i64, ptr %add.ptr14.i, align 1
  br label %sdslen.exit

sdslen.exit:                                      ; preds = %sw.bb.i, %sw.bb3.i, %sw.bb5.i, %sw.bb9.i, %sw.bb13.i
  %retval.0.i = phi i64 [ %4, %sw.bb13.i ], [ %conv12.i, %sw.bb9.i ], [ %conv8.i, %sw.bb5.i ], [ %conv4.i, %sw.bb3.i ], [ %conv2.i, %sw.bb.i ]
  %tobool.not12 = icmp eq i64 %retval.0.i, 0
  br i1 %tobool.not12, label %return, label %while.body

while.cond:                                       ; preds = %lor.lhs.false25
  %incdec.ptr = getelementptr inbounds i8, ptr %p.013, i64 1
  %dec14 = add i64 %dec14.in, -1
  %tobool.not = icmp eq i64 %dec14, 0
  br i1 %tobool.not, label %return, label %while.body, !llvm.loop !15

while.body:                                       ; preds = %sdslen.exit, %while.cond
  %dec14.in = phi i64 [ %dec14, %while.cond ], [ %retval.0.i, %sdslen.exit ]
  %p.013 = phi ptr [ %incdec.ptr, %while.cond ], [ %s, %sdslen.exit ]
  %5 = load i8, ptr %p.013, align 1
  switch i8 %5, label %lor.lhs.false25 [
    i8 92, label %return
    i8 34, label %return
    i8 10, label %return
    i8 13, label %return
    i8 9, label %return
    i8 7, label %return
    i8 8, label %return
  ]

lor.lhs.false25:                                  ; preds = %while.body
  %call26 = tail call ptr @__ctype_b_loc() #30
  %6 = load ptr, ptr %call26, align 8
  %idxprom = sext i8 %5 to i64
  %arrayidx = getelementptr inbounds i16, ptr %6, i64 %idxprom
  %7 = load i16, ptr %arrayidx, align 2
  %8 = and i16 %7, 24576
  %or.cond = icmp eq i16 %8, 16384
  br i1 %or.cond, label %while.cond, label %return

return:                                           ; preds = %while.body, %while.body, %while.body, %while.body, %while.body, %while.body, %while.body, %lor.lhs.false25, %while.cond, %entry, %sdslen.exit
  %retval.0 = phi i32 [ 0, %sdslen.exit ], [ 0, %entry ], [ 0, %while.cond ], [ 1, %lor.lhs.false25 ], [ 1, %while.body ], [ 1, %while.body ], [ 1, %while.body ], [ 1, %while.body ], [ 1, %while.body ], [ 1, %while.body ], [ 1, %while.body ]
  ret i32 %retval.0
}